; Function Attrs: mustprogress nounwind uwtable
define hidden void @_ZN15DictionaryEntry6verifyEv(ptr noundef nonnull align 8 dereferenceable(16) %0) local_unnamed_addr #0 align 2 {
  %2 = load ptr, ptr %0, align 8
  %3 = getelementptr inbounds i8, ptr %2, i64 12
  %4 = load i32, ptr %3, align 4
  %5 = icmp slt i32 %4, 5
  br i1 %5, label %8, label %6

6:                                                ; preds = %1
  %7 = load ptr, ptr @g_assert_poison, align 8
  store i8 88, ptr %7, align 1
  tail call void (ptr, i32, ptr, ptr, ...) @_Z15report_vm_errorPKciS0_S0_z(ptr noundef nonnull @.str.14, i32 noundef 530, ptr noundef nonnull @.str.20, ptr noundef nonnull @.str.21) #16
  unreachable

8:                                                ; preds = %1
  %9 = load ptr, ptr @tty, align 8
  %10 = load ptr, ptr %2, align 8
  %11 = getelementptr inbounds i8, ptr %10, i64 312
  %12 = load ptr, ptr %11, align 8
  tail call void %12(ptr noundef nonnull align 8 dereferenceable(196) %2, ptr noundef %9) #15
  %13 = getelementptr inbounds i8, ptr %0, i64 8
  %14 = load volatile ptr, ptr %13, align 8
  tail call void asm sideeffect "", "~{memory},~{dirflag},~{fpsr},~{flags}"() #15, !srcloc !9
  %.not4.i = icmp eq ptr %14, null
  br i1 %.not4.i, label %_ZN15DictionaryEntry27verify_package_access_cacheEv.exit, label %.lr.ph.i

.lr.ph.i:                                         ; preds = %8, %19
  %.05.i = phi ptr [ %21, %19 ], [ %14, %8 ]
  %15 = tail call noundef ptr @_ZN21ProtectionDomainEntry19object_no_keepaliveEv(ptr noundef nonnull align 8 dereferenceable(16) %.05.i) #15
  %16 = tail call noundef zeroext i1 @_ZN7oopDesc14is_oop_or_nullEPS_b(ptr noundef %15, i1 noundef zeroext false) #15
  br i1 %16, label %19, label %17

17:                                               ; preds = %.lr.ph.i
  %18 = load ptr, ptr @g_assert_poison, align 8
  store i8 88, ptr %18, align 1
  tail call void (ptr, i32, ptr, ptr, ...) @_Z15report_vm_errorPKciS0_S0_z(ptr noundef nonnull @.str.14, i32 noundef 470, ptr noundef nonnull @.str.15, ptr noundef nonnull @.str.16) #16
  unreachable

19:                                               ; preds = %.lr.ph.i
  %20 = getelementptr inbounds i8, ptr %.05.i, i64 8
  %21 = load volatile ptr, ptr %20, align 8
  tail call void asm sideeffect "", "~{memory},~{dirflag},~{fpsr},~{flags}"() #15, !srcloc !9
  %.not.i = icmp eq ptr %21, null
  br i1 %.not.i, label %_ZN15DictionaryEntry27verify_package_access_cacheEv.exit, label %.lr.ph.i, !llvm.loop !28

_ZN15DictionaryEntry27verify_package_access_cacheEv.exit: ; preds = %19, %8
  ret void
}